target datalayout = "e-m:e-p270:32:32-p271:32:32-p272:64:64-i64:64-i128:128-f80:128-n8:16:32:64-S128"
target triple = "x86_64-pc-linux-gnu"

%struct.Abc_ZddMan_ = type { i32, i32, i32, i32, i32, i32, ptr, ptr, ptr, ptr, i32, i32, i64, ptr, ptr, ptr }
%struct.Abc_ZddObj_ = type { i32, i32, i32 }

@.str.16 = private unnamed_addr constant [51 x i8] c"Aborting because the number of nodes exceeded %d.\0A\00", align 1
@stdout = external global ptr, align 8

; Function Attrs: inlinehint nounwind uwtable
define internal i32 @Abc_ZddHash(i32 noundef %0, i32 noundef %1, i32 noundef %2) #2 {
  %4 = alloca i32, align 4
  %5 = alloca i32, align 4
  %6 = alloca i32, align 4
  store i32 %0, ptr %4, align 4, !tbaa !10
  store i32 %1, ptr %5, align 4, !tbaa !10
  store i32 %2, ptr %6, align 4, !tbaa !10
  %7 = load i32, ptr %4, align 4, !tbaa !10
  %8 = mul nsw i32 12582917, %7
  %9 = load i32, ptr %5, align 4, !tbaa !10
  %10 = mul nsw i32 4256249, %9
  %11 = add nsw i32 %8, %10
  %12 = load i32, ptr %6, align 4, !tbaa !10
  %13 = mul nsw i32 741457, %12
  %14 = add nsw i32 %11, %13
  ret i32 %14
}

; Function Attrs: inlinehint nounwind uwtable
define internal i32 @Abc_ZddUniqueCreate(ptr noundef %0, i32 noundef %1, i32 noundef %2, i32 noundef %3) #2 {
  %5 = alloca i32, align 4
  %6 = alloca ptr, align 8
  %7 = alloca i32, align 4
  %8 = alloca i32, align 4
  %9 = alloca i32, align 4
  %10 = alloca ptr, align 8
  %11 = alloca i32, align 4
  store ptr %0, ptr %6, align 8, !tbaa !3
  store i32 %1, ptr %7, align 4, !tbaa !10
  store i32 %2, ptr %8, align 4, !tbaa !10
  store i32 %3, ptr %9, align 4, !tbaa !10
  %12 = load i32, ptr %8, align 4, !tbaa !10
  %13 = icmp eq i32 %12, 0
  br i1 %13, label %14, label %16

14:                                               ; preds = %4
  %15 = load i32, ptr %9, align 4, !tbaa !10
  store i32 %15, ptr %5, align 4
  br label %136

16:                                               ; preds = %4
  call void @llvm.lifetime.start.p0(i64 8, ptr %10) #12
  %17 = load ptr, ptr %6, align 8, !tbaa !3
  %18 = getelementptr inbounds nuw %struct.Abc_ZddMan_, ptr %17, i32 0, i32 6
  %19 = load ptr, ptr %18, align 8, !tbaa !16
  %20 = load i32, ptr %7, align 4, !tbaa !10
  %21 = load i32, ptr %8, align 4, !tbaa !10
  %22 = load i32, ptr %9, align 4, !tbaa !10
  %23 = call i32 @Abc_ZddHash(i32 noundef %20, i32 noundef %21, i32 noundef %22)
  %24 = load ptr, ptr %6, align 8, !tbaa !3
  %25 = getelementptr inbounds nuw %struct.Abc_ZddMan_, ptr %24, i32 0, i32 4
  %26 = load i32, ptr %25, align 8, !tbaa !21
  %27 = and i32 %23, %26
  %28 = zext i32 %27 to i64
  %29 = getelementptr inbounds nuw i32, ptr %19, i64 %28
  store ptr %29, ptr %10, align 8, !tbaa !8
  br label %30

30:                                               ; preds = %74, %16
  %31 = load ptr, ptr %10, align 8, !tbaa !8
  %32 = load i32, ptr %31, align 4, !tbaa !10
  %33 = icmp ne i32 %32, 0
  br i1 %33, label %34, label %82

34:                                               ; preds = %30
  %35 = load ptr, ptr %6, align 8, !tbaa !3
  %36 = getelementptr inbounds nuw %struct.Abc_ZddMan_, ptr %35, i32 0, i32 9
  %37 = load ptr, ptr %36, align 8, !tbaa !22
  %38 = load ptr, ptr %10, align 8, !tbaa !8
  %39 = load i32, ptr %38, align 4, !tbaa !10
  %40 = sext i32 %39 to i64
  %41 = getelementptr inbounds %struct.Abc_ZddObj_, ptr %37, i64 %40
  %42 = load i32, ptr %41, align 4
  %43 = and i32 %42, 2147483647
  %44 = load i32, ptr %7, align 4, !tbaa !10
  %45 = icmp eq i32 %43, %44
  br i1 %45, label %46, label %73

46:                                               ; preds = %34
  %47 = load ptr, ptr %6, align 8, !tbaa !3
  %48 = getelementptr inbounds nuw %struct.Abc_ZddMan_, ptr %47, i32 0, i32 9
  %49 = load ptr, ptr %48, align 8, !tbaa !22
  %50 = load ptr, ptr %10, align 8, !tbaa !8
  %51 = load i32, ptr %50, align 4, !tbaa !10
  %52 = sext i32 %51 to i64
  %53 = getelementptr inbounds %struct.Abc_ZddObj_, ptr %49, i64 %52
  %54 = getelementptr inbounds nuw %struct.Abc_ZddObj_, ptr %53, i32 0, i32 1
  %55 = load i32, ptr %54, align 4, !tbaa !23
  %56 = load i32, ptr %8, align 4, !tbaa !10
  %57 = icmp eq i32 %55, %56
  br i1 %57, label %58, label %73

58:                                               ; preds = %46
  %59 = load ptr, ptr %6, align 8, !tbaa !3
  %60 = getelementptr inbounds nuw %struct.Abc_ZddMan_, ptr %59, i32 0, i32 9
  %61 = load ptr, ptr %60, align 8, !tbaa !22
  %62 = load ptr, ptr %10, align 8, !tbaa !8
  %63 = load i32, ptr %62, align 4, !tbaa !10
  %64 = sext i32 %63 to i64
  %65 = getelementptr inbounds %struct.Abc_ZddObj_, ptr %61, i64 %64
  %66 = getelementptr inbounds nuw %struct.Abc_ZddObj_, ptr %65, i32 0, i32 2
  %67 = load i32, ptr %66, align 4, !tbaa !25
  %68 = load i32, ptr %9, align 4, !tbaa !10
  %69 = icmp eq i32 %67, %68
  br i1 %69, label %70, label %73

70:                                               ; preds = %58
  %71 = load ptr, ptr %10, align 8, !tbaa !8
  %72 = load i32, ptr %71, align 4, !tbaa !10
  store i32 %72, ptr %5, align 4
  store i32 1, ptr %11, align 4
  br label %135

73:                                               ; preds = %58, %46, %34
  br label %74

74:                                               ; preds = %73
  %75 = load ptr, ptr %6, align 8, !tbaa !3
  %76 = getelementptr inbounds nuw %struct.Abc_ZddMan_, ptr %75, i32 0, i32 7
  %77 = load ptr, ptr %76, align 8, !tbaa !26
  %78 = load ptr, ptr %10, align 8, !tbaa !8
  %79 = load i32, ptr %78, align 4, !tbaa !10
  %80 = sext i32 %79 to i64
  %81 = getelementptr inbounds i32, ptr %77, i64 %80
  store ptr %81, ptr %10, align 8, !tbaa !8
  br label %30, !llvm.loop !27

82:                                               ; preds = %30
  %83 = load ptr, ptr %6, align 8, !tbaa !3
  %84 = getelementptr inbounds nuw %struct.Abc_ZddMan_, ptr %83, i32 0, i32 1
  %85 = load i32, ptr %84, align 4, !tbaa !28
  %86 = load ptr, ptr %6, align 8, !tbaa !3
  %87 = getelementptr inbounds nuw %struct.Abc_ZddMan_, ptr %86, i32 0, i32 2
  %88 = load i32, ptr %87, align 8, !tbaa !29
  %89 = icmp eq i32 %85, %88
  br i1 %89, label %90, label %97

90:                                               ; preds = %82
  %91 = load ptr, ptr %6, align 8, !tbaa !3
  %92 = getelementptr inbounds nuw %struct.Abc_ZddMan_, ptr %91, i32 0, i32 2
  %93 = load i32, ptr %92, align 8, !tbaa !29
  %94 = call i32 (ptr, ...) @printf(ptr noundef @.str.16, i32 noundef %93)
  %95 = load ptr, ptr @stdout, align 8, !tbaa !30
  %96 = call i32 @fflush(ptr noundef %95)
  br label %97

97:                                               ; preds = %90, %82
  %98 = load ptr, ptr %6, align 8, !tbaa !3
  %99 = getelementptr inbounds nuw %struct.Abc_ZddMan_, ptr %98, i32 0, i32 1
  %100 = load i32, ptr %99, align 4, !tbaa !28
  %101 = add nsw i32 %100, 1
  store i32 %101, ptr %99, align 4, !tbaa !28
  %102 = load ptr, ptr %10, align 8, !tbaa !8
  store i32 %100, ptr %102, align 4, !tbaa !10
  %103 = load i32, ptr %7, align 4, !tbaa !10
  %104 = load ptr, ptr %6, align 8, !tbaa !3
  %105 = getelementptr inbounds nuw %struct.Abc_ZddMan_, ptr %104, i32 0, i32 9
  %106 = load ptr, ptr %105, align 8, !tbaa !22
  %107 = load ptr, ptr %10, align 8, !tbaa !8
  %108 = load i32, ptr %107, align 4, !tbaa !10
  %109 = sext i32 %108 to i64
  %110 = getelementptr inbounds %struct.Abc_ZddObj_, ptr %106, i64 %109
  %111 = load i32, ptr %110, align 4
  %112 = and i32 %103, 2147483647
  %113 = and i32 %111, -2147483648
  %114 = or i32 %113, %112
  store i32 %114, ptr %110, align 4
  %115 = load i32, ptr %8, align 4, !tbaa !10
  %116 = load ptr, ptr %6, align 8, !tbaa !3
  %117 = getelementptr inbounds nuw %struct.Abc_ZddMan_, ptr %116, i32 0, i32 9
  %118 = load ptr, ptr %117, align 8, !tbaa !22
  %119 = load ptr, ptr %10, align 8, !tbaa !8
  %120 = load i32, ptr %119, align 4, !tbaa !10
  %121 = sext i32 %120 to i64
  %122 = getelementptr inbounds %struct.Abc_ZddObj_, ptr %118, i64 %121
  %123 = getelementptr inbounds nuw %struct.Abc_ZddObj_, ptr %122, i32 0, i32 1
  store i32 %115, ptr %123, align 4, !tbaa !23
  %124 = load i32, ptr %9, align 4, !tbaa !10
  %125 = load ptr, ptr %6, align 8, !tbaa !3
  %126 = getelementptr inbounds nuw %struct.Abc_ZddMan_, ptr %125, i32 0, i32 9
  %127 = load ptr, ptr %126, align 8, !tbaa !22
  %128 = load ptr, ptr %10, align 8, !tbaa !8
  %129 = load i32, ptr %128, align 4, !tbaa !10
  %130 = sext i32 %129 to i64
  %131 = getelementptr inbounds %struct.Abc_ZddObj_, ptr %127, i64 %130
  %132 = getelementptr inbounds nuw %struct.Abc_ZddObj_, ptr %131, i32 0, i32 2
  store i32 %124, ptr %132, align 4, !tbaa !25
  %133 = load ptr, ptr %10, align 8, !tbaa !8
  %134 = load i32, ptr %133, align 4, !tbaa !10
  store i32 %134, ptr %5, align 4
  store i32 1, ptr %11, align 4
  br label %135

135:                                              ; preds = %97, %70
  call void @llvm.lifetime.end.p0(i64 8, ptr %10) #12
  br label %136

136:                                              ; preds = %135, %14
  %137 = load i32, ptr %5, align 4
  ret i32 %137
}

; Function Attrs: inlinehint nounwind uwtable
define internal void @Vec_IntSelectSort(ptr noundef %0, i32 noundef %1) #2 {
  %3 = alloca ptr, align 8
  %4 = alloca i32, align 4
  %5 = alloca i32, align 4
  %6 = alloca i32, align 4
  %7 = alloca i32, align 4
  %8 = alloca i32, align 4
  store ptr %0, ptr %3, align 8, !tbaa !8
  store i32 %1, ptr %4, align 4, !tbaa !10
  call void @llvm.lifetime.start.p0(i64 4, ptr %5) #12
  call void @llvm.lifetime.start.p0(i64 4, ptr %6) #12
  call void @llvm.lifetime.start.p0(i64 4, ptr %7) #12
  call void @llvm.lifetime.start.p0(i64 4, ptr %8) #12
  store i32 0, ptr %6, align 4, !tbaa !10
  br label %9

9:                                                ; preds = %60, %2
  %10 = load i32, ptr %6, align 4, !tbaa !10
  %11 = load i32, ptr %4, align 4, !tbaa !10
  %12 = sub nsw i32 %11, 1
  %13 = icmp slt i32 %10, %12
  br i1 %13, label %14, label %63

14:                                               ; preds = %9
  %15 = load i32, ptr %6, align 4, !tbaa !10
  store i32 %15, ptr %8, align 4, !tbaa !10
  %16 = load i32, ptr %6, align 4, !tbaa !10
  %17 = add nsw i32 %16, 1
  store i32 %17, ptr %7, align 4, !tbaa !10
  br label %18

18:                                               ; preds = %37, %14
  %19 = load i32, ptr %7, align 4, !tbaa !10
  %20 = load i32, ptr %4, align 4, !tbaa !10
  %21 = icmp slt i32 %19, %20
  br i1 %21, label %22, label %40

22:                                               ; preds = %18
  %23 = load ptr, ptr %3, align 8, !tbaa !8
  %24 = load i32, ptr %7, align 4, !tbaa !10
  %25 = sext i32 %24 to i64
  %26 = getelementptr inbounds i32, ptr %23, i64 %25
  %27 = load i32, ptr %26, align 4, !tbaa !10
  %28 = load ptr, ptr %3, align 8, !tbaa !8
  %29 = load i32, ptr %8, align 4, !tbaa !10
  %30 = sext i32 %29 to i64
  %31 = getelementptr inbounds i32, ptr %28, i64 %30
  %32 = load i32, ptr %31, align 4, !tbaa !10
  %33 = icmp slt i32 %27, %32
  br i1 %33, label %34, label %36

34:                                               ; preds = %22
  %35 = load i32, ptr %7, align 4, !tbaa !10
  store i32 %35, ptr %8, align 4, !tbaa !10
  br label %36

36:                                               ; preds = %34, %22
  br label %37

37:                                               ; preds = %36
  %38 = load i32, ptr %7, align 4, !tbaa !10
  %39 = add nsw i32 %38, 1
  store i32 %39, ptr %7, align 4, !tbaa !10
  br label %18, !llvm.loop !14

40:                                               ; preds = %18
  %41 = load ptr, ptr %3, align 8, !tbaa !8
  %42 = load i32, ptr %6, align 4, !tbaa !10
  %43 = sext i32 %42 to i64
  %44 = getelementptr inbounds i32, ptr %41, i64 %43
  %45 = load i32, ptr %44, align 4, !tbaa !10
  store i32 %45, ptr %5, align 4, !tbaa !10
  %46 = load ptr, ptr %3, align 8, !tbaa !8
  %47 = load i32, ptr %8, align 4, !tbaa !10
  %48 = sext i32 %47 to i64
  %49 = getelementptr inbounds i32, ptr %46, i64 %48
  %50 = load i32, ptr %49, align 4, !tbaa !10
  %51 = load ptr, ptr %3, align 8, !tbaa !8
  %52 = load i32, ptr %6, align 4, !tbaa !10
  %53 = sext i32 %52 to i64
  %54 = getelementptr inbounds i32, ptr %51, i64 %53
  store i32 %50, ptr %54, align 4, !tbaa !10
  %55 = load i32, ptr %5, align 4, !tbaa !10
  %56 = load ptr, ptr %3, align 8, !tbaa !8
  %57 = load i32, ptr %8, align 4, !tbaa !10
  %58 = sext i32 %57 to i64
  %59 = getelementptr inbounds i32, ptr %56, i64 %58
  store i32 %55, ptr %59, align 4, !tbaa !10
  br label %60

60:                                               ; preds = %40
  %61 = load i32, ptr %6, align 4, !tbaa !10
  %62 = add nsw i32 %61, 1
  store i32 %62, ptr %6, align 4, !tbaa !10
  br label %9, !llvm.loop !15

63:                                               ; preds = %9
  call void @llvm.lifetime.end.p0(i64 4, ptr %8) #12
  call void @llvm.lifetime.end.p0(i64 4, ptr %7) #12
  call void @llvm.lifetime.end.p0(i64 4, ptr %6) #12
  call void @llvm.lifetime.end.p0(i64 4, ptr %5) #12
  ret void
}

; Function Attrs: nounwind uwtable
define i32 @Abc_ZddBuildSet(ptr noundef %0, ptr noundef %1, i32 noundef %2) #0 {
  %4 = alloca ptr, align 8
  %5 = alloca ptr, align 8
  %6 = alloca i32, align 4
  %7 = alloca i32, align 4
  %8 = alloca i32, align 4
  store ptr %0, ptr %4, align 8, !tbaa !3
  store ptr %1, ptr %5, align 8, !tbaa !8
  store i32 %2, ptr %6, align 4, !tbaa !10
  call void @llvm.lifetime.start.p0(i64 4, ptr %7) #12
  call void @llvm.lifetime.start.p0(i64 4, ptr %8) #12
  store i32 1, ptr %8, align 4, !tbaa !10
  %9 = load ptr, ptr %5, align 8, !tbaa !8
  %10 = load i32, ptr %6, align 4, !tbaa !10
  call void @Vec_IntSelectSort(ptr noundef %9, i32 noundef %10)
  %11 = load i32, ptr %6, align 4, !tbaa !10
  %12 = sub nsw i32 %11, 1
  store i32 %12, ptr %7, align 4, !tbaa !10
  br label %13

13:                                               ; preds = %25, %3
  %14 = load i32, ptr %7, align 4, !tbaa !10
  %15 = icmp sge i32 %14, 0
  br i1 %15, label %16, label %28

16:                                               ; preds = %13
  %17 = load ptr, ptr %4, align 8, !tbaa !3
  %18 = load ptr, ptr %5, align 8, !tbaa !8
  %19 = load i32, ptr %7, align 4, !tbaa !10
  %20 = sext i32 %19 to i64
  %21 = getelementptr inbounds i32, ptr %18, i64 %20
  %22 = load i32, ptr %21, align 4, !tbaa !10
  %23 = load i32, ptr %8, align 4, !tbaa !10
  %24 = call i32 @Abc_ZddUniqueCreate(ptr noundef %17, i32 noundef %22, i32 noundef %23, i32 noundef 0)
  store i32 %24, ptr %8, align 4, !tbaa !10
  br label %25

25:                                               ; preds = %16
  %26 = load i32, ptr %7, align 4, !tbaa !10
  %27 = add nsw i32 %26, -1
  store i32 %27, ptr %7, align 4, !tbaa !10
  br label %13, !llvm.loop !12

28:                                               ; preds = %13
  %29 = load i32, ptr %8, align 4, !tbaa !10
  call void @llvm.lifetime.end.p0(i64 4, ptr %8) #12
  call void @llvm.lifetime.end.p0(i64 4, ptr %7) #12
  ret i32 %29
}