; Function Attrs: nofree nounwind uwtable
define i32 @Abc_ZddBuildSet(ptr noundef captures(none) %0, ptr noundef captures(none) %1, i32 noundef %2) local_unnamed_addr #0 {
  %4 = icmp sgt i32 %2, 1
  br i1 %4, label %.lr.ph27.preheader.i, label %Vec_IntSelectSort.exit

.lr.ph27.preheader.i:                             ; preds = %3
  %5 = add nsw i32 %2, -1
  %wide.trip.count35.i = zext nneg i32 %5 to i64
  %wide.trip.count.i = zext nneg i32 %2 to i64
  br label %.lr.ph.preheader.i

.lr.ph.preheader.i:                               ; preds = %._crit_edge.i, %.lr.ph27.preheader.i
  %indvars.iv32.i = phi i64 [ 0, %.lr.ph27.preheader.i ], [ %indvars.iv.next33.i, %._crit_edge.i ]
  %indvars.iv.i = phi i64 [ 1, %.lr.ph27.preheader.i ], [ %indvars.iv.next.i, %._crit_edge.i ]
  %6 = trunc nuw nsw i64 %indvars.iv32.i to i32
  br label %.lr.ph.i

.lr.ph.i:                                         ; preds = %.lr.ph.i, %.lr.ph.preheader.i
  %indvars.iv29.i = phi i64 [ %indvars.iv.i, %.lr.ph.preheader.i ], [ %indvars.iv.next30.i, %.lr.ph.i ]
  %.024.i = phi i32 [ %6, %.lr.ph.preheader.i ], [ %spec.select.i, %.lr.ph.i ]
  %7 = getelementptr inbounds nuw i32, ptr %1, i64 %indvars.iv29.i
  %8 = load i32, ptr %7, align 4, !tbaa !3
  %9 = sext i32 %.024.i to i64
  %10 = getelementptr inbounds i32, ptr %1, i64 %9
  %11 = load i32, ptr %10, align 4, !tbaa !3
  %12 = icmp slt i32 %8, %11
  %13 = trunc nuw nsw i64 %indvars.iv29.i to i32
  %spec.select.i = select i1 %12, i32 %13, i32 %.024.i
  %indvars.iv.next30.i = add nuw nsw i64 %indvars.iv29.i, 1
  %exitcond.not.i = icmp eq i64 %indvars.iv.next30.i, %wide.trip.count.i
  br i1 %exitcond.not.i, label %._crit_edge.i, label %.lr.ph.i, !llvm.loop !7

._crit_edge.i:                                    ; preds = %.lr.ph.i
  %indvars.iv.next33.i = add nuw nsw i64 %indvars.iv32.i, 1
  %14 = getelementptr inbounds nuw i32, ptr %1, i64 %indvars.iv32.i
  %15 = load i32, ptr %14, align 4, !tbaa !3
  %16 = sext i32 %spec.select.i to i64
  %17 = getelementptr inbounds i32, ptr %1, i64 %16
  %18 = load i32, ptr %17, align 4, !tbaa !3
  store i32 %18, ptr %14, align 4, !tbaa !3
  store i32 %15, ptr %17, align 4, !tbaa !3
  %indvars.iv.next.i = add nuw nsw i64 %indvars.iv.i, 1
  %exitcond36.not.i = icmp eq i64 %indvars.iv.next33.i, %wide.trip.count35.i
  br i1 %exitcond36.not.i, label %Vec_IntSelectSort.exit, label %.lr.ph.preheader.i, !llvm.loop !9

Vec_IntSelectSort.exit:                           ; preds = %._crit_edge.i, %3
  %19 = icmp sgt i32 %2, 0
  br i1 %19, label %.lr.ph, label %._crit_edge

.lr.ph:                                           ; preds = %Vec_IntSelectSort.exit
  %20 = getelementptr inbounds nuw i8, ptr %0, i64 24
  %21 = getelementptr inbounds nuw i8, ptr %0, i64 16
  %22 = getelementptr inbounds nuw i8, ptr %0, i64 48
  %23 = getelementptr inbounds nuw i8, ptr %0, i64 32
  %24 = getelementptr inbounds nuw i8, ptr %0, i64 4
  %25 = getelementptr inbounds nuw i8, ptr %0, i64 8
  %26 = zext nneg i32 %2 to i64
  br label %27

27:                                               ; preds = %.lr.ph, %Abc_ZddUniqueCreate.exit
  %indvars.iv = phi i64 [ %26, %.lr.ph ], [ %indvars.iv.next, %Abc_ZddUniqueCreate.exit ]
  %.017 = phi i32 [ 1, %.lr.ph ], [ %.035.i, %Abc_ZddUniqueCreate.exit ]
  %indvars.iv.next = add nsw i64 %indvars.iv, -1
  %28 = getelementptr inbounds nuw i32, ptr %1, i64 %indvars.iv.next
  %29 = load i32, ptr %28, align 4, !tbaa !3
  %30 = icmp eq i32 %.017, 0
  br i1 %30, label %Abc_ZddUniqueCreate.exit, label %31

31:                                               ; preds = %27
  %32 = load ptr, ptr %20, align 8, !tbaa !10
  %33 = mul nsw i32 %29, 12582917
  %34 = mul nsw i32 %.017, 4256249
  %35 = add nsw i32 %33, %34
  %36 = load i32, ptr %21, align 8, !tbaa !17
  %37 = and i32 %36, %35
  %38 = zext i32 %37 to i64
  %39 = getelementptr inbounds nuw i32, ptr %32, i64 %38
  %40 = load i32, ptr %39, align 4, !tbaa !3
  %.not41.i = icmp eq i32 %40, 0
  br i1 %.not41.i, label %._crit_edge.i11, label %.lr.ph.i10

.lr.ph.i10:                                       ; preds = %31
  %41 = load ptr, ptr %22, align 8, !tbaa !18
  br label %42

42:                                               ; preds = %57, %.lr.ph.i10
  %43 = phi i32 [ %40, %.lr.ph.i10 ], [ %60, %57 ]
  %44 = sext i32 %43 to i64
  %45 = getelementptr inbounds %struct.Abc_ZddObj_, ptr %41, i64 %44
  %46 = load i32, ptr %45, align 4
  %47 = and i32 %46, 2147483647
  %48 = icmp eq i32 %47, %29
  br i1 %48, label %49, label %57

49:                                               ; preds = %42
  %50 = getelementptr inbounds nuw i8, ptr %45, i64 4
  %51 = load i32, ptr %50, align 4, !tbaa !19
  %52 = icmp eq i32 %51, %.017
  br i1 %52, label %53, label %57

53:                                               ; preds = %49
  %54 = getelementptr inbounds nuw i8, ptr %45, i64 8
  %55 = load i32, ptr %54, align 4, !tbaa !21
  %56 = icmp eq i32 %55, 0
  br i1 %56, label %Abc_ZddUniqueCreate.exit, label %57

57:                                               ; preds = %53, %49, %42
  %58 = load ptr, ptr %23, align 8, !tbaa !22
  %59 = getelementptr inbounds i32, ptr %58, i64 %44
  %60 = load i32, ptr %59, align 4, !tbaa !3
  %.not.i = icmp eq i32 %60, 0
  br i1 %.not.i, label %._crit_edge.i11.loopexit, label %42, !llvm.loop !23

._crit_edge.i11.loopexit:                         ; preds = %57
  %61 = getelementptr inbounds i32, ptr %58, i64 %44
  br label %._crit_edge.i11

._crit_edge.i11:                                  ; preds = %._crit_edge.i11.loopexit, %31
  %.0.lcssa.i = phi ptr [ %39, %31 ], [ %61, %._crit_edge.i11.loopexit ]
  %62 = load i32, ptr %24, align 4, !tbaa !24
  %63 = load i32, ptr %25, align 8, !tbaa !25
  %64 = icmp eq i32 %62, %63
  br i1 %64, label %65, label %69

65:                                               ; preds = %._crit_edge.i11
  %66 = tail call i32 (ptr, ...) @printf(ptr noundef nonnull dereferenceable(1) @.str.16, i32 noundef %62)
  %67 = load ptr, ptr @stdout, align 8, !tbaa !26
  %68 = tail call i32 @fflush(ptr noundef %67)
  %.pre.i = load i32, ptr %24, align 4, !tbaa !24
  br label %69

69:                                               ; preds = %65, %._crit_edge.i11
  %70 = phi i32 [ %.pre.i, %65 ], [ %62, %._crit_edge.i11 ]
  %71 = add nsw i32 %70, 1
  store i32 %71, ptr %24, align 4, !tbaa !24
  store i32 %70, ptr %.0.lcssa.i, align 4, !tbaa !3
  %72 = load ptr, ptr %22, align 8, !tbaa !18
  %73 = sext i32 %70 to i64
  %74 = getelementptr inbounds %struct.Abc_ZddObj_, ptr %72, i64 %73
  %75 = load i32, ptr %74, align 4
  %76 = and i32 %29, 2147483647
  %77 = and i32 %75, -2147483648
  %78 = or disjoint i32 %77, %76
  store i32 %78, ptr %74, align 4
  %79 = load ptr, ptr %22, align 8, !tbaa !18
  %80 = load i32, ptr %.0.lcssa.i, align 4, !tbaa !3
  %81 = sext i32 %80 to i64
  %82 = getelementptr inbounds %struct.Abc_ZddObj_, ptr %79, i64 %81, i32 1
  store i32 %.017, ptr %82, align 4, !tbaa !19
  %83 = load i32, ptr %.0.lcssa.i, align 4, !tbaa !3
  %84 = sext i32 %83 to i64
  %85 = getelementptr inbounds %struct.Abc_ZddObj_, ptr %79, i64 %84, i32 2
  store i32 0, ptr %85, align 4, !tbaa !21
  %86 = load i32, ptr %.0.lcssa.i, align 4, !tbaa !3
  br label %Abc_ZddUniqueCreate.exit

Abc_ZddUniqueCreate.exit:                         ; preds = %53, %27, %69
  %.035.i = phi i32 [ 0, %27 ], [ %86, %69 ], [ %43, %53 ]
  %87 = icmp sgt i64 %indvars.iv, 1
  br i1 %87, label %27, label %._crit_edge, !llvm.loop !28

._crit_edge:                                      ; preds = %Abc_ZddUniqueCreate.exit, %Vec_IntSelectSort.exit
  %.0.lcssa = phi i32 [ 1, %Vec_IntSelectSort.exit ], [ %.035.i, %Abc_ZddUniqueCreate.exit ]
  ret i32 %.0.lcssa
}